; Function Attrs: nounwind uwtable
define i32 @lv_event_get_key(ptr noundef %0) local_unnamed_addr #0 {
  %2 = getelementptr inbounds nuw i8, ptr %0, i64 16
  %3 = load i32, ptr %2, align 8, !tbaa !10
  %4 = icmp eq i32 %3, 17
  br i1 %4, label %5, label %9

5:                                                ; preds = %1
  %6 = tail call ptr @lv_event_get_param(ptr noundef nonnull %0) #4
  %.not = icmp eq ptr %6, null
  br i1 %.not, label %9, label %7

7:                                                ; preds = %5
  %8 = load i32, ptr %6, align 4, !tbaa !28
  br label %9

9:                                                ; preds = %1, %7, %5
  %.1 = phi i32 [ %8, %7 ], [ 0, %5 ], [ 0, %1 ]
  ret i32 %.1
}